target datalayout = "e-m:e-p270:32:32-p271:32:32-p272:64:64-i64:64-i128:128-f80:128-n8:16:32:64-S128"
target triple = "x86_64-pc-linux-gnu"

%"class.tbb::detail::r1::affinity_helper" = type <{ ptr, i32, [4 x i8] }>

@_ZN3tbb6detail2r1L12process_maskE = internal global ptr null, align 8
@_ZN3tbb6detail2r1L9num_masksE = internal global i32 0, align 4
@.str = private unnamed_addr constant [27 x i8] c"setaffinity syscall failed\00", align 1
@.str.1 = private unnamed_addr constant [27 x i8] c"getaffinity syscall failed\00", align 1

; Function Attrs: mustprogress sspstrong uwtable
define internal void @_ZN3tbb6detail2r1L24set_thread_affinity_maskEmPK9cpu_set_t(i64 noundef %0, ptr noundef %1) #2 {
  %3 = alloca i64, align 8
  %4 = alloca ptr, align 8
  store i64 %0, ptr %3, align 8, !tbaa !14
  store ptr %1, ptr %4, align 8, !tbaa !3
  %5 = load i64, ptr %3, align 8, !tbaa !14
  %6 = load ptr, ptr %4, align 8, !tbaa !3
  %7 = call i32 @sched_setaffinity(i32 noundef 0, i64 noundef %5, ptr noundef %6) #13
  %8 = icmp ne i32 %7, 0
  br i1 %8, label %9, label %10

9:                                                ; preds = %2
  call void (ptr, ...) @_ZN3tbb6detail2r115runtime_warningEPKcz(ptr noundef @.str)
  br label %10

10:                                               ; preds = %9, %2
  ret void
}

; Function Attrs: mustprogress sspstrong uwtable
define internal void @_ZN3tbb6detail2r1L24get_thread_affinity_maskEmP9cpu_set_t(i64 noundef %0, ptr noundef %1) #2 {
  %3 = alloca i64, align 8
  %4 = alloca ptr, align 8
  store i64 %0, ptr %3, align 8, !tbaa !14
  store ptr %1, ptr %4, align 8, !tbaa !3
  %5 = load i64, ptr %3, align 8, !tbaa !14
  %6 = load ptr, ptr %4, align 8, !tbaa !3
  %7 = call i32 @sched_getaffinity(i32 noundef 0, i64 noundef %5, ptr noundef %6) #13
  %8 = icmp ne i32 %7, 0
  br i1 %8, label %9, label %10

9:                                                ; preds = %2
  call void (ptr, ...) @_ZN3tbb6detail2r115runtime_warningEPKcz(ptr noundef @.str.1)
  br label %10

10:                                               ; preds = %9, %2
  ret void
}

; Function Attrs: alwaysinline mustprogress nounwind
define internal ptr @memset.inline(ptr nonnull %0, i32 %1, i64 %2) #6 {
  %4 = alloca ptr, align 8
  %5 = alloca i32, align 4
  %6 = alloca i64, align 8
  store ptr %0, ptr %4, align 8, !tbaa !3
  store i32 %1, ptr %5, align 4, !tbaa !13
  store i64 %2, ptr %6, align 8, !tbaa !14
  %7 = load ptr, ptr %4, align 8, !tbaa !3
  %8 = load i32, ptr %5, align 4, !tbaa !13
  %9 = load i64, ptr %6, align 8, !tbaa !14
  %10 = load ptr, ptr %4, align 8, !tbaa !3
  %11 = call i64 @llvm.objectsize.i64.p0(ptr %10, i1 false, i1 true, i1 false)
  %12 = call ptr @__memset_chk(ptr noundef %7, i32 noundef %8, i64 noundef %9, i64 noundef %11) #13
  ret ptr %12
}

; Function Attrs: mustprogress sspstrong uwtable
define void @_ZN3tbb6detail2r115affinity_helper21protect_affinity_maskEb(ptr noundef nonnull align 8 dereferenceable(12) %0, i1 noundef zeroext %1) #2 align 2 {
  %3 = alloca ptr, align 8
  %4 = alloca i8, align 1
  store ptr %0, ptr %3, align 8, !tbaa !7
  %5 = zext i1 %1 to i8
  store i8 %5, ptr %4, align 1, !tbaa !16
  %6 = load ptr, ptr %3, align 8
  %7 = getelementptr inbounds nuw %"class.tbb::detail::r1::affinity_helper", ptr %6, i32 0, i32 0
  %8 = load ptr, ptr %7, align 8, !tbaa !9
  %9 = icmp eq ptr %8, null
  br i1 %9, label %10, label %56

10:                                               ; preds = %2
  %11 = load i32, ptr @_ZN3tbb6detail2r1L9num_masksE, align 4, !tbaa !13
  %12 = icmp ne i32 %11, 0
  br i1 %12, label %13, label %56

13:                                               ; preds = %10
  %14 = load i32, ptr @_ZN3tbb6detail2r1L9num_masksE, align 4, !tbaa !13
  %15 = sext i32 %14 to i64
  %16 = call { i64, i1 } @llvm.umul.with.overflow.i64(i64 %15, i64 128)
  %17 = extractvalue { i64, i1 } %16, 1
  %18 = extractvalue { i64, i1 } %16, 0
  %19 = select i1 %17, i64 -1, i64 %18
  %20 = call noalias noundef nonnull ptr @_Znam(i64 noundef %19) #16
  %21 = getelementptr inbounds nuw %"class.tbb::detail::r1::affinity_helper", ptr %6, i32 0, i32 0
  store ptr %20, ptr %21, align 8, !tbaa !9
  %22 = getelementptr inbounds nuw %"class.tbb::detail::r1::affinity_helper", ptr %6, i32 0, i32 0
  %23 = load ptr, ptr %22, align 8, !tbaa !9
  %24 = load i32, ptr @_ZN3tbb6detail2r1L9num_masksE, align 4, !tbaa !13
  %25 = sext i32 %24 to i64
  %26 = mul i64 128, %25
  %27 = call ptr @memset.inline(ptr noundef %23, i32 noundef 0, i64 noundef %26) #13
  %28 = load i32, ptr @_ZN3tbb6detail2r1L9num_masksE, align 4, !tbaa !13
  %29 = sext i32 %28 to i64
  %30 = mul i64 128, %29
  %31 = getelementptr inbounds nuw %"class.tbb::detail::r1::affinity_helper", ptr %6, i32 0, i32 0
  %32 = load ptr, ptr %31, align 8, !tbaa !9
  call void @_ZN3tbb6detail2r1L24get_thread_affinity_maskEmP9cpu_set_t(i64 noundef %30, ptr noundef %32)
  %33 = load i8, ptr %4, align 1, !tbaa !16, !range !18, !noundef !19
  %34 = trunc i8 %33 to i1
  br i1 %34, label %35, label %53

35:                                               ; preds = %13
  %36 = load ptr, ptr @_ZN3tbb6detail2r1L12process_maskE, align 8, !tbaa !3
  %37 = getelementptr inbounds nuw %"class.tbb::detail::r1::affinity_helper", ptr %6, i32 0, i32 0
  %38 = load ptr, ptr %37, align 8, !tbaa !9
  %39 = load i32, ptr @_ZN3tbb6detail2r1L9num_masksE, align 4, !tbaa !13
  %40 = sext i32 %39 to i64
  %41 = mul i64 128, %40
  %42 = call i32 @memcmp(ptr noundef %36, ptr noundef %38, i64 noundef %41) #17
  %43 = getelementptr inbounds nuw %"class.tbb::detail::r1::affinity_helper", ptr %6, i32 0, i32 1
  store i32 %42, ptr %43, align 8, !tbaa !12
  %44 = getelementptr inbounds nuw %"class.tbb::detail::r1::affinity_helper", ptr %6, i32 0, i32 1
  %45 = load i32, ptr %44, align 8, !tbaa !12
  %46 = icmp ne i32 %45, 0
  br i1 %46, label %47, label %52

47:                                               ; preds = %35
  %48 = load i32, ptr @_ZN3tbb6detail2r1L9num_masksE, align 4, !tbaa !13
  %49 = sext i32 %48 to i64
  %50 = mul i64 128, %49
  %51 = load ptr, ptr @_ZN3tbb6detail2r1L12process_maskE, align 8, !tbaa !3
  call void @_ZN3tbb6detail2r1L24set_thread_affinity_maskEmPK9cpu_set_t(i64 noundef %50, ptr noundef %51)
  br label %52

52:                                               ; preds = %47, %35
  br label %55

53:                                               ; preds = %13
  %54 = getelementptr inbounds nuw %"class.tbb::detail::r1::affinity_helper", ptr %6, i32 0, i32 1
  store i32 1, ptr %54, align 8, !tbaa !12
  br label %55

55:                                               ; preds = %53, %52
  br label %56

56:                                               ; preds = %55, %10, %2
  ret void
}