; Function Attrs: mustprogress sspstrong uwtable
define void @_ZN3tbb6detail2r115affinity_helper21protect_affinity_maskEb(ptr noundef nonnull align 8 captures(none) dereferenceable(12) %0, i1 noundef zeroext %1) local_unnamed_addr #4 align 2 {
  %3 = load ptr, ptr %0, align 8, !tbaa !7
  %4 = icmp eq ptr %3, null
  %5 = load i32, ptr @_ZN3tbb6detail2r1L9num_masksE, align 4
  %6 = icmp ne i32 %5, 0
  %or.cond = select i1 %4, i1 %6, i1 false
  br i1 %or.cond, label %7, label %_ZN3tbb6detail2r1L24set_thread_affinity_maskEmPK9cpu_set_t.exit

7:                                                ; preds = %2
  %8 = sext i32 %5 to i64
  %9 = icmp slt i32 %5, 0
  %10 = shl nsw i64 %8, 7
  %11 = select i1 %9, i64 -1, i64 %10
  %12 = tail call noalias noundef nonnull ptr @_Znam(i64 noundef %11) #16
  store ptr %12, ptr %0, align 8, !tbaa !7
  tail call void @llvm.memset.p0.i64(ptr noundef nonnull align 1 %12, i8 noundef 0, i64 noundef range(i64 -274877906944, 274877906817) %10, i1 noundef false) #11
  %13 = tail call i32 @sched_getaffinity(i32 noundef 0, i64 noundef range(i64 -274877906944, 274877906817) %10, ptr noundef nonnull %12) #11
  %.not.i = icmp eq i32 %13, 0
  br i1 %.not.i, label %_ZN3tbb6detail2r1L24get_thread_affinity_maskEmP9cpu_set_t.exit, label %14

14:                                               ; preds = %7
  tail call void (ptr, ...) @_ZN3tbb6detail2r115runtime_warningEPKcz(ptr noundef nonnull @.str.1)
  br label %_ZN3tbb6detail2r1L24get_thread_affinity_maskEmP9cpu_set_t.exit

_ZN3tbb6detail2r1L24get_thread_affinity_maskEmP9cpu_set_t.exit: ; preds = %7, %14
  br i1 %1, label %15, label %26

15:                                               ; preds = %_ZN3tbb6detail2r1L24get_thread_affinity_maskEmP9cpu_set_t.exit
  %16 = load ptr, ptr @_ZN3tbb6detail2r1L12process_maskE, align 8, !tbaa !3
  %17 = load ptr, ptr %0, align 8, !tbaa !7
  %18 = load i32, ptr @_ZN3tbb6detail2r1L9num_masksE, align 4, !tbaa !11
  %19 = sext i32 %18 to i64
  %20 = shl nsw i64 %19, 7
  %21 = tail call i32 @memcmp(ptr noundef %16, ptr noundef %17, i64 noundef %20) #17
  %22 = getelementptr inbounds nuw i8, ptr %0, i64 8
  store i32 %21, ptr %22, align 8, !tbaa !10
  %.not = icmp eq i32 %21, 0
  br i1 %.not, label %_ZN3tbb6detail2r1L24set_thread_affinity_maskEmPK9cpu_set_t.exit, label %23

23:                                               ; preds = %15
  %24 = tail call i32 @sched_setaffinity(i32 noundef 0, i64 noundef range(i64 -274877906944, 274877906817) %20, ptr noundef %16) #11
  %.not.i2 = icmp eq i32 %24, 0
  br i1 %.not.i2, label %_ZN3tbb6detail2r1L24set_thread_affinity_maskEmPK9cpu_set_t.exit, label %25

25:                                               ; preds = %23
  tail call void (ptr, ...) @_ZN3tbb6detail2r115runtime_warningEPKcz(ptr noundef nonnull @.str)
  br label %_ZN3tbb6detail2r1L24set_thread_affinity_maskEmPK9cpu_set_t.exit

26:                                               ; preds = %_ZN3tbb6detail2r1L24get_thread_affinity_maskEmP9cpu_set_t.exit
  %27 = getelementptr inbounds nuw i8, ptr %0, i64 8
  store i32 1, ptr %27, align 8, !tbaa !10
  br label %_ZN3tbb6detail2r1L24set_thread_affinity_maskEmPK9cpu_set_t.exit

_ZN3tbb6detail2r1L24set_thread_affinity_maskEmPK9cpu_set_t.exit: ; preds = %25, %23, %26, %15, %2
  ret void
}